target datalayout = "e-m:e-p270:32:32-p271:32:32-p272:64:64-i64:64-i128:128-f80:128-n8:16:32:64-S128"
target triple = "x86_64-unknown-linux-gnu"

%"class.icu_75::UnicodeString" = type { %"class.icu_75::Replaceable", %"union.icu_75::UnicodeString::StackBufferOrFields" }
%"class.icu_75::Replaceable" = type { %"class.icu_75::UObject" }
%"class.icu_75::UObject" = type { ptr }
%"union.icu_75::UnicodeString::StackBufferOrFields" = type { %struct.anon.0, [32 x i8] }
%struct.anon.0 = type { i16, i32, i32, ptr }

; Function Attrs: mustprogress uwtable
define noundef signext i8 @_ZN6icu_7513UnicodeString8allocateEi(ptr noundef nonnull align 8 dereferenceable(64) %this, i32 noundef %capacity) #3 align 2 {
entry:
  %retval = alloca i8, align 1
  %this.addr = alloca ptr, align 8
  %capacity.addr = alloca i32, align 4
  %numBytes = alloca i64, align 8
  %array = alloca ptr, align 8
  store ptr %this, ptr %this.addr, align 8
  store i32 %capacity, ptr %capacity.addr, align 4
  %this1 = load ptr, ptr %this.addr, align 8
  %0 = load i32, ptr %capacity.addr, align 4
  %cmp = icmp sle i32 %0, 27
  br i1 %cmp, label %if.then, label %if.end

if.then:                                          ; preds = %entry
  %fUnion = getelementptr inbounds %"class.icu_75::UnicodeString", ptr %this1, i32 0, i32 1
  %fLengthAndFlags = getelementptr inbounds %struct.anon.0, ptr %fUnion, i32 0, i32 0
  store i16 2, ptr %fLengthAndFlags, align 8
  store i8 1, ptr %retval, align 1
  br label %return

if.end:                                           ; preds = %entry
  %1 = load i32, ptr %capacity.addr, align 4
  %cmp2 = icmp sle i32 %1, 2147483637
  br i1 %cmp2, label %if.then3, label %if.end13

if.then3:                                         ; preds = %if.end
  %2 = load i32, ptr %capacity.addr, align 4
  %inc = add nsw i32 %2, 1
  store i32 %inc, ptr %capacity.addr, align 4
  %3 = load i32, ptr %capacity.addr, align 4
  %conv = sext i32 %3 to i64
  %mul = mul i64 %conv, 2
  %add = add i64 4, %mul
  store i64 %add, ptr %numBytes, align 8
  %4 = load i64, ptr %numBytes, align 8
  %add4 = add i64 %4, 15
  %and = and i64 %add4, -16
  store i64 %and, ptr %numBytes, align 8
  %5 = load i64, ptr %numBytes, align 8
  %call = call noalias ptr @uprv_malloc_75(i64 noundef %5) #11
  store ptr %call, ptr %array, align 8
  %6 = load ptr, ptr %array, align 8
  %cmp5 = icmp ne ptr %6, null
  br i1 %cmp5, label %if.then6, label %if.end12

if.then6:                                         ; preds = %if.then3
  %7 = load ptr, ptr %array, align 8
  %incdec.ptr = getelementptr inbounds i32, ptr %7, i32 1
  store ptr %incdec.ptr, ptr %array, align 8
  store i32 1, ptr %7, align 4
  %8 = load i64, ptr %numBytes, align 8
  %sub = sub i64 %8, 4
  store i64 %sub, ptr %numBytes, align 8
  %9 = load ptr, ptr %array, align 8
  %fUnion7 = getelementptr inbounds %"class.icu_75::UnicodeString", ptr %this1, i32 0, i32 1
  %fArray = getelementptr inbounds %struct.anon.0, ptr %fUnion7, i32 0, i32 3
  store ptr %9, ptr %fArray, align 8
  %10 = load i64, ptr %numBytes, align 8
  %div = udiv i64 %10, 2
  %conv8 = trunc i64 %div to i32
  %fUnion9 = getelementptr inbounds %"class.icu_75::UnicodeString", ptr %this1, i32 0, i32 1
  %fCapacity = getelementptr inbounds %struct.anon.0, ptr %fUnion9, i32 0, i32 2
  store i32 %conv8, ptr %fCapacity, align 8
  %fUnion10 = getelementptr inbounds %"class.icu_75::UnicodeString", ptr %this1, i32 0, i32 1
  %fLengthAndFlags11 = getelementptr inbounds %struct.anon.0, ptr %fUnion10, i32 0, i32 0
  store i16 4, ptr %fLengthAndFlags11, align 8
  store i8 1, ptr %retval, align 1
  br label %return

if.end12:                                         ; preds = %if.then3
  br label %if.end13

if.end13:                                         ; preds = %if.end12, %if.end
  %fUnion14 = getelementptr inbounds %"class.icu_75::UnicodeString", ptr %this1, i32 0, i32 1
  %fLengthAndFlags15 = getelementptr inbounds %struct.anon.0, ptr %fUnion14, i32 0, i32 0
  store i16 1, ptr %fLengthAndFlags15, align 8
  %fUnion16 = getelementptr inbounds %"class.icu_75::UnicodeString", ptr %this1, i32 0, i32 1
  %fArray17 = getelementptr inbounds %struct.anon.0, ptr %fUnion16, i32 0, i32 3
  store ptr null, ptr %fArray17, align 8
  %fUnion18 = getelementptr inbounds %"class.icu_75::UnicodeString", ptr %this1, i32 0, i32 1
  %fCapacity19 = getelementptr inbounds %struct.anon.0, ptr %fUnion18, i32 0, i32 2
  store i32 0, ptr %fCapacity19, align 8
  store i8 0, ptr %retval, align 1
  br label %return

return:                                           ; preds = %if.end13, %if.then6, %if.then
  %11 = load i8, ptr %retval, align 1
  ret i8 %11
}