; Function Attrs: mustprogress uwtable
define noundef signext i8 @_ZN6icu_7513UnicodeString8allocateEi(ptr nocapture noundef nonnull writeonly align 8 dereferenceable(64) %this, i32 noundef %capacity) local_unnamed_addr #5 align 2 {
entry:
  %cmp = icmp slt i32 %capacity, 28
  br i1 %cmp, label %if.then, label %if.end

if.then:                                          ; preds = %entry
  %fUnion = getelementptr inbounds i8, ptr %this, i64 8
  store i16 2, ptr %fUnion, align 8
  br label %return

if.end:                                           ; preds = %entry
  %cmp2 = icmp ult i32 %capacity, 2147483638
  br i1 %cmp2, label %if.then3, label %if.end13

if.then3:                                         ; preds = %if.end
  %inc = shl nuw i32 %capacity, 1
  %0 = zext i32 %inc to i64
  %add4 = add nuw nsw i64 %0, 21
  %and = and i64 %add4, 8589934576
  %call = tail call noalias ptr @uprv_malloc_75(i64 noundef %and) #24
  %cmp5.not = icmp eq ptr %call, null
  br i1 %cmp5.not, label %if.end13, label %if.then6

if.then6:                                         ; preds = %if.then3
  %incdec.ptr = getelementptr inbounds i8, ptr %call, i64 4
  store i32 1, ptr %call, align 4
  %sub = add nuw nsw i64 %and, 8589934588
  %fUnion7 = getelementptr inbounds i8, ptr %this, i64 8
  %fArray = getelementptr inbounds i8, ptr %this, i64 24
  store ptr %incdec.ptr, ptr %fArray, align 8
  %div9 = lshr exact i64 %sub, 1
  %conv8 = trunc i64 %div9 to i32
  %fCapacity = getelementptr inbounds i8, ptr %this, i64 16
  store i32 %conv8, ptr %fCapacity, align 8
  store i16 4, ptr %fUnion7, align 8
  br label %return

if.end13:                                         ; preds = %if.then3, %if.end
  %fUnion14 = getelementptr inbounds i8, ptr %this, i64 8
  store i16 1, ptr %fUnion14, align 8
  %fArray17 = getelementptr inbounds i8, ptr %this, i64 24
  store ptr null, ptr %fArray17, align 8
  %fCapacity19 = getelementptr inbounds i8, ptr %this, i64 16
  store i32 0, ptr %fCapacity19, align 8
  br label %return

return:                                           ; preds = %if.end13, %if.then6, %if.then
  %retval.0 = phi i8 [ 1, %if.then ], [ 1, %if.then6 ], [ 0, %if.end13 ]
  ret i8 %retval.0
}